#include <math.h>
#include <stdio.h>
#include <stdlib.h>
#include <string.h>


double f(double n){
	double result=0,a=1,b=2,e,c,i;

	for(i=0;i<n;i++)
	{
		result+=b/a;
        e=a+b;
        c=b;
		a=c;
		b=e;
	}
return (result);
}
int main()
{
	
	int n,i;
	double m[100][2];
	scanf("%d",&n);
	for(i=0;i<n;i++)
	{
		scanf("%lf",&(m[i][0]));
		m[i][1]=f(m[i][0]);
	}
	for(i=0;i<n;i++)
	{
		printf("%.3lf\n",m[i][1]);
	}



return 0;
}
