; ModuleID = '29/466.c'
source_filename = "29/466.c"
target datalayout = "e-m:e-p270:32:32-p271:32:32-p272:64:64-i64:64-f80:128-n8:16:32:64-S128"
target triple = "x86_64-pc-linux-gnu"

@.str = private unnamed_addr constant [3 x i8] c"%d\00", align 1
@.str.1 = private unnamed_addr constant [4 x i8] c"%lf\00", align 1
@.str.2 = private unnamed_addr constant [7 x i8] c"%.3lf\0A\00", align 1

; Function Attrs: noinline nounwind uwtable
define dso_local double @f(double %0) #0 {
  %2 = alloca double, align 8
  %3 = alloca double, align 8
  %4 = alloca double, align 8
  %5 = alloca double, align 8
  %6 = alloca double, align 8
  %7 = alloca double, align 8
  %8 = alloca double, align 8
  store double %0, double* %2, align 8
  store double 0.000000e+00, double* %3, align 8
  store double 1.000000e+00, double* %4, align 8
  store double 2.000000e+00, double* %5, align 8
  store double 0.000000e+00, double* %8, align 8
  br label %9

9:                                                ; preds = %25, %1
  %10 = load double, double* %8, align 8
  %11 = load double, double* %2, align 8
  %12 = fcmp olt double %10, %11
  br i1 %12, label %13, label %28

13:                                               ; preds = %9
  %14 = load double, double* %5, align 8
  %15 = load double, double* %4, align 8
  %16 = fdiv double %14, %15
  %17 = load double, double* %3, align 8
  %18 = fadd double %17, %16
  store double %18, double* %3, align 8
  %19 = load double, double* %4, align 8
  %20 = load double, double* %5, align 8
  %21 = fadd double %19, %20
  store double %21, double* %6, align 8
  %22 = load double, double* %5, align 8
  store double %22, double* %7, align 8
  %23 = load double, double* %7, align 8
  store double %23, double* %4, align 8
  %24 = load double, double* %6, align 8
  store double %24, double* %5, align 8
  br label %25

25:                                               ; preds = %13
  %26 = load double, double* %8, align 8
  %27 = fadd double %26, 1.000000e+00
  store double %27, double* %8, align 8
  br label %9

28:                                               ; preds = %9
  %29 = load double, double* %3, align 8
  ret double %29
}

; Function Attrs: noinline nounwind uwtable
define dso_local i32 @main() #0 {
  %1 = alloca i32, align 4
  %2 = alloca i32, align 4
  %3 = alloca i32, align 4
  %4 = alloca [100 x [2 x double]], align 16
  store i32 0, i32* %1, align 4
  %5 = call i32 (i8*, ...) @__isoc99_scanf(i8* getelementptr inbounds ([3 x i8], [3 x i8]* @.str, i64 0, i64 0), i32* %2)
  store i32 0, i32* %3, align 4
  br label %6

6:                                                ; preds = %26, %0
  %7 = load i32, i32* %3, align 4
  %8 = load i32, i32* %2, align 4
  %9 = icmp slt i32 %7, %8
  br i1 %9, label %10, label %29

10:                                               ; preds = %6
  %11 = load i32, i32* %3, align 4
  %12 = sext i32 %11 to i64
  %13 = getelementptr inbounds [100 x [2 x double]], [100 x [2 x double]]* %4, i64 0, i64 %12
  %14 = getelementptr inbounds [2 x double], [2 x double]* %13, i64 0, i64 0
  %15 = call i32 (i8*, ...) @__isoc99_scanf(i8* getelementptr inbounds ([4 x i8], [4 x i8]* @.str.1, i64 0, i64 0), double* %14)
  %16 = load i32, i32* %3, align 4
  %17 = sext i32 %16 to i64
  %18 = getelementptr inbounds [100 x [2 x double]], [100 x [2 x double]]* %4, i64 0, i64 %17
  %19 = getelementptr inbounds [2 x double], [2 x double]* %18, i64 0, i64 0
  %20 = load double, double* %19, align 16
  %21 = call double @f(double %20)
  %22 = load i32, i32* %3, align 4
  %23 = sext i32 %22 to i64
  %24 = getelementptr inbounds [100 x [2 x double]], [100 x [2 x double]]* %4, i64 0, i64 %23
  %25 = getelementptr inbounds [2 x double], [2 x double]* %24, i64 0, i64 1
  store double %21, double* %25, align 8
  br label %26

26:                                               ; preds = %10
  %27 = load i32, i32* %3, align 4
  %28 = add nsw i32 %27, 1
  store i32 %28, i32* %3, align 4
  br label %6

29:                                               ; preds = %6
  store i32 0, i32* %3, align 4
  br label %30

30:                                               ; preds = %41, %29
  %31 = load i32, i32* %3, align 4
  %32 = load i32, i32* %2, align 4
  %33 = icmp slt i32 %31, %32
  br i1 %33, label %34, label %44

34:                                               ; preds = %30
  %35 = load i32, i32* %3, align 4
  %36 = sext i32 %35 to i64
  %37 = getelementptr inbounds [100 x [2 x double]], [100 x [2 x double]]* %4, i64 0, i64 %36
  %38 = getelementptr inbounds [2 x double], [2 x double]* %37, i64 0, i64 1
  %39 = load double, double* %38, align 8
  %40 = call i32 (i8*, ...) @printf(i8* getelementptr inbounds ([7 x i8], [7 x i8]* @.str.2, i64 0, i64 0), double %39)
  br label %41

41:                                               ; preds = %34
  %42 = load i32, i32* %3, align 4
  %43 = add nsw i32 %42, 1
  store i32 %43, i32* %3, align 4
  br label %30

44:                                               ; preds = %30
  ret i32 0
}

declare dso_local i32 @__isoc99_scanf(i8*, ...) #1

declare dso_local i32 @printf(i8*, ...) #1


!llvm.module.flags = !{!0}
!llvm.ident = !{!1}

!0 = !{i32 1, !"wchar_size", i32 4}
!1 = !{!"clang version 10.0.0-4ubuntu1 "}
